target datalayout = "e-m:e-p270:32:32-p271:32:32-p272:64:64-i64:64-i128:128-f80:128-n8:16:32:64-S128"
target triple = "x86_64-pc-linux-gnu"

%struct.mi_stats_s = type { %struct.mi_stat_count_s, %struct.mi_stat_count_s, %struct.mi_stat_count_s, %struct.mi_stat_count_s, %struct.mi_stat_count_s, %struct.mi_stat_count_s, %struct.mi_stat_count_s, %struct.mi_stat_count_s, %struct.mi_stat_count_s, %struct.mi_stat_count_s, %struct.mi_stat_count_s, %struct.mi_stat_count_s, %struct.mi_stat_count_s, %struct.mi_stat_count_s, %struct.mi_stat_counter_s, %struct.mi_stat_counter_s, %struct.mi_stat_counter_s, %struct.mi_stat_counter_s, %struct.mi_stat_counter_s, %struct.mi_stat_counter_s, %struct.mi_stat_counter_s, %struct.mi_stat_counter_s }
%struct.mi_stat_count_s = type { i64, i64, i64, i64 }
%struct.mi_stat_counter_s = type { i64, i64 }

@_mi_stats_main = external global %struct.mi_stats_s, align 64

; Function Attrs: inlinehint nounwind uwtable
define internal void @mi_atomic_maxi64_relaxed(ptr noundef %0, i64 noundef %1) #1 {
  %3 = alloca ptr, align 8
  %4 = alloca i64, align 8
  %5 = alloca i64, align 8
  %6 = alloca i64, align 8
  %7 = alloca i64, align 8
  %8 = alloca i8, align 1
  store ptr %0, ptr %3, align 8, !tbaa !14
  store i64 %1, ptr %4, align 8, !tbaa !8
  call void @llvm.lifetime.start.p0(i64 8, ptr %5) #7
  %9 = load ptr, ptr %3, align 8, !tbaa !14
  %10 = load atomic i64, ptr %9 monotonic, align 8
  store i64 %10, ptr %6, align 8
  %11 = load i64, ptr %6, align 8, !tbaa !8
  store i64 %11, ptr %5, align 8, !tbaa !8
  br label %12

12:                                               ; preds = %32, %2
  %13 = load i64, ptr %5, align 8, !tbaa !8
  %14 = load i64, ptr %4, align 8, !tbaa !8
  %15 = icmp slt i64 %13, %14
  br i1 %15, label %16, label %30

16:                                               ; preds = %12
  %17 = load ptr, ptr %3, align 8, !tbaa !14
  %18 = load i64, ptr %4, align 8, !tbaa !8
  store i64 %18, ptr %7, align 8, !tbaa !8
  %19 = load i64, ptr %5, align 8
  %20 = load i64, ptr %7, align 8
  %21 = cmpxchg weak ptr %17, i64 %19, i64 %20 release monotonic, align 8
  %22 = extractvalue { i64, i1 } %21, 0
  %23 = extractvalue { i64, i1 } %21, 1
  br i1 %23, label %25, label %24

24:                                               ; preds = %16
  store i64 %22, ptr %5, align 8
  br label %25

25:                                               ; preds = %24, %16
  %26 = zext i1 %23 to i8
  store i8 %26, ptr %8, align 1, !tbaa !44
  %27 = load i8, ptr %8, align 1, !tbaa !44, !range !45, !noundef !46
  %28 = trunc i8 %27 to i1
  %29 = xor i1 %28, true
  br label %30

30:                                               ; preds = %25, %12
  %31 = phi i1 [ false, %12 ], [ %29, %25 ]
  br i1 %31, label %32, label %33

32:                                               ; preds = %30
  br label %12, !llvm.loop !47

33:                                               ; preds = %30
  call void @llvm.lifetime.end.p0(i64 8, ptr %5) #7
  ret void
}

; Function Attrs: inlinehint nounwind uwtable
define internal i64 @mi_atomic_addi64_relaxed(ptr noundef %0, i64 noundef %1) #1 {
  %3 = alloca ptr, align 8
  %4 = alloca i64, align 8
  %5 = alloca i64, align 8
  %6 = alloca i64, align 8
  store ptr %0, ptr %3, align 8, !tbaa !14
  store i64 %1, ptr %4, align 8, !tbaa !8
  %7 = load ptr, ptr %3, align 8, !tbaa !14
  %8 = load i64, ptr %4, align 8, !tbaa !8
  store i64 %8, ptr %5, align 8, !tbaa !8
  %9 = load i64, ptr %5, align 8
  %10 = atomicrmw add ptr %7, i64 %9 monotonic, align 8
  store i64 %10, ptr %6, align 8
  %11 = load i64, ptr %6, align 8, !tbaa !8
  ret i64 %11
}

; Function Attrs: nounwind uwtable
define internal zeroext i1 @mi_is_in_main(ptr noundef %0) #0 {
  %2 = alloca ptr, align 8
  store ptr %0, ptr %2, align 8, !tbaa !13
  %3 = load ptr, ptr %2, align 8, !tbaa !13
  %4 = icmp uge ptr %3, @_mi_stats_main
  br i1 %4, label %5, label %8

5:                                                ; preds = %1
  %6 = load ptr, ptr %2, align 8, !tbaa !13
  %7 = icmp ult ptr %6, getelementptr inbounds nuw (i8, ptr @_mi_stats_main, i64 576)
  br label %8

8:                                                ; preds = %5, %1
  %9 = phi i1 [ false, %1 ], [ %7, %5 ]
  ret i1 %9
}

; Function Attrs: nounwind uwtable
define internal void @mi_stat_update(ptr noundef %0, i64 noundef %1) #0 {
  %3 = alloca ptr, align 8
  %4 = alloca i64, align 8
  %5 = alloca i64, align 8
  store ptr %0, ptr %3, align 8, !tbaa !16
  store i64 %1, ptr %4, align 8, !tbaa !8
  %6 = load i64, ptr %4, align 8, !tbaa !8
  %7 = icmp eq i64 %6, 0
  br i1 %7, label %8, label %9

8:                                                ; preds = %2
  br label %72

9:                                                ; preds = %2
  %10 = load ptr, ptr %3, align 8, !tbaa !16
  %11 = call zeroext i1 @mi_is_in_main(ptr noundef %10)
  br i1 %11, label %12, label %36

12:                                               ; preds = %9
  call void @llvm.lifetime.start.p0(i64 8, ptr %5) #7
  %13 = load ptr, ptr %3, align 8, !tbaa !16
  %14 = getelementptr inbounds nuw %struct.mi_stat_count_s, ptr %13, i32 0, i32 3
  %15 = load i64, ptr %4, align 8, !tbaa !8
  %16 = call i64 @mi_atomic_addi64_relaxed(ptr noundef %14, i64 noundef %15)
  store i64 %16, ptr %5, align 8, !tbaa !8
  %17 = load ptr, ptr %3, align 8, !tbaa !16
  %18 = getelementptr inbounds nuw %struct.mi_stat_count_s, ptr %17, i32 0, i32 2
  %19 = load i64, ptr %5, align 8, !tbaa !8
  %20 = load i64, ptr %4, align 8, !tbaa !8
  %21 = add nsw i64 %19, %20
  call void @mi_atomic_maxi64_relaxed(ptr noundef %18, i64 noundef %21)
  %22 = load i64, ptr %4, align 8, !tbaa !8
  %23 = icmp sgt i64 %22, 0
  br i1 %23, label %24, label %29

24:                                               ; preds = %12
  %25 = load ptr, ptr %3, align 8, !tbaa !16
  %26 = getelementptr inbounds nuw %struct.mi_stat_count_s, ptr %25, i32 0, i32 0
  %27 = load i64, ptr %4, align 8, !tbaa !8
  %28 = call i64 @mi_atomic_addi64_relaxed(ptr noundef %26, i64 noundef %27)
  br label %35

29:                                               ; preds = %12
  %30 = load ptr, ptr %3, align 8, !tbaa !16
  %31 = getelementptr inbounds nuw %struct.mi_stat_count_s, ptr %30, i32 0, i32 1
  %32 = load i64, ptr %4, align 8, !tbaa !8
  %33 = sub nsw i64 0, %32
  %34 = call i64 @mi_atomic_addi64_relaxed(ptr noundef %31, i64 noundef %33)
  br label %35

35:                                               ; preds = %29, %24
  call void @llvm.lifetime.end.p0(i64 8, ptr %5) #7
  br label %72

36:                                               ; preds = %9
  %37 = load i64, ptr %4, align 8, !tbaa !8
  %38 = load ptr, ptr %3, align 8, !tbaa !16
  %39 = getelementptr inbounds nuw %struct.mi_stat_count_s, ptr %38, i32 0, i32 3
  %40 = load i64, ptr %39, align 8, !tbaa !18
  %41 = add nsw i64 %40, %37
  store i64 %41, ptr %39, align 8, !tbaa !18
  %42 = load ptr, ptr %3, align 8, !tbaa !16
  %43 = getelementptr inbounds nuw %struct.mi_stat_count_s, ptr %42, i32 0, i32 3
  %44 = load i64, ptr %43, align 8, !tbaa !18
  %45 = load ptr, ptr %3, align 8, !tbaa !16
  %46 = getelementptr inbounds nuw %struct.mi_stat_count_s, ptr %45, i32 0, i32 2
  %47 = load i64, ptr %46, align 8, !tbaa !20
  %48 = icmp sgt i64 %44, %47
  br i1 %48, label %49, label %55

49:                                               ; preds = %36
  %50 = load ptr, ptr %3, align 8, !tbaa !16
  %51 = getelementptr inbounds nuw %struct.mi_stat_count_s, ptr %50, i32 0, i32 3
  %52 = load i64, ptr %51, align 8, !tbaa !18
  %53 = load ptr, ptr %3, align 8, !tbaa !16
  %54 = getelementptr inbounds nuw %struct.mi_stat_count_s, ptr %53, i32 0, i32 2
  store i64 %52, ptr %54, align 8, !tbaa !20
  br label %55

55:                                               ; preds = %49, %36
  %56 = load i64, ptr %4, align 8, !tbaa !8
  %57 = icmp sgt i64 %56, 0
  br i1 %57, label %58, label %64

58:                                               ; preds = %55
  %59 = load i64, ptr %4, align 8, !tbaa !8
  %60 = load ptr, ptr %3, align 8, !tbaa !16
  %61 = getelementptr inbounds nuw %struct.mi_stat_count_s, ptr %60, i32 0, i32 0
  %62 = load i64, ptr %61, align 8, !tbaa !21
  %63 = add nsw i64 %62, %59
  store i64 %63, ptr %61, align 8, !tbaa !21
  br label %71

64:                                               ; preds = %55
  %65 = load i64, ptr %4, align 8, !tbaa !8
  %66 = sub nsw i64 0, %65
  %67 = load ptr, ptr %3, align 8, !tbaa !16
  %68 = getelementptr inbounds nuw %struct.mi_stat_count_s, ptr %67, i32 0, i32 1
  %69 = load i64, ptr %68, align 8, !tbaa !22
  %70 = add nsw i64 %69, %66
  store i64 %70, ptr %68, align 8, !tbaa !22
  br label %71

71:                                               ; preds = %64, %58
  br label %72

72:                                               ; preds = %8, %71, %35
  ret void
}

; Function Attrs: nounwind uwtable
define hidden void @_mi_stat_decrease(ptr noundef %0, i64 noundef %1) #0 {
  %3 = alloca ptr, align 8
  %4 = alloca i64, align 8
  store ptr %0, ptr %3, align 8, !tbaa !16
  store i64 %1, ptr %4, align 8, !tbaa !8
  %5 = load ptr, ptr %3, align 8, !tbaa !16
  %6 = load i64, ptr %4, align 8, !tbaa !8
  %7 = sub nsw i64 0, %6
  call void @mi_stat_update(ptr noundef %5, i64 noundef %7)
  ret void
}